; Function Attrs: mustprogress nofree norecurse nosync nounwind memory(argmem: readwrite) uwtable
define hidden noundef zeroext i1 @_ZNK3sat6clause12check_approxEv(ptr nocapture noundef nonnull align 4 dereferenceable(20) %this) local_unnamed_addr #3 align 2 {
entry:
  %m_size.i = getelementptr inbounds i8, ptr %this, i64 4
  %0 = load i32, ptr %m_size.i, align 4
  %m_lits.i = getelementptr inbounds i8, ptr %this, i64 20
  %cmp4.not.i.i = icmp eq i32 %0, 0
  br i1 %cmp4.not.i.i, label %_ZN3sat6clause13update_approxEv.exit, label %for.body.preheader.i.i

for.body.preheader.i.i:                           ; preds = %entry
  %wide.trip.count.i.i = zext i32 %0 to i64
  br label %for.body.i.i

for.body.i.i:                                     ; preds = %for.body.i.i, %for.body.preheader.i.i
  %indvars.iv.i.i = phi i64 [ 0, %for.body.preheader.i.i ], [ %indvars.iv.next.i.i, %for.body.i.i ]
  %retval.sroa.0.05.i.i = phi i32 [ 0, %for.body.preheader.i.i ], [ %or.i.i.i, %for.body.i.i ]
  %arrayidx.i.i = getelementptr inbounds %"class.sat::literal", ptr %m_lits.i, i64 %indvars.iv.i.i
  %1 = load i32, ptr %arrayidx.i.i, align 4
  %shr.i.i.i = lshr i32 %1, 1
  %and.i.i.i.i.i = and i32 %shr.i.i.i, 31
  %shl.i.i.i.i.i = shl nuw i32 1, %and.i.i.i.i.i
  %or.i.i.i = or i32 %shl.i.i.i.i.i, %retval.sroa.0.05.i.i
  %indvars.iv.next.i.i = add nuw nsw i64 %indvars.iv.i.i, 1
  %exitcond.not.i.i = icmp eq i64 %indvars.iv.next.i.i, %wide.trip.count.i.i
  br i1 %exitcond.not.i.i, label %_ZN3sat6clause13update_approxEv.exit, label %for.body.i.i, !llvm.loop !4

_ZN3sat6clause13update_approxEv.exit:             ; preds = %for.body.i.i, %entry
  %retval.sroa.0.0.lcssa.i.i = phi i32 [ 0, %entry ], [ %or.i.i.i, %for.body.i.i ]
  %m_approx.i = getelementptr inbounds i8, ptr %this, i64 12
  store i32 %retval.sroa.0.0.lcssa.i.i, ptr %m_approx.i, align 4
  ret i1 true
}